target datalayout = "e-m:e-p270:32:32-p271:32:32-p272:64:64-i64:64-i128:128-f80:128-n8:16:32:64-S128"
target triple = "x86_64-pc-linux-gnu"

@hf_afs_ubik_addr = internal global i32 0, align 4
@hf_afs_ubik_lastvotetime = internal global i32 0, align 4
@hf_afs_ubik_lastbeaconsent = internal global i32 0, align 4
@hf_afs_ubik_lastvote = internal global i32 0, align 4
@hf_afs_ubik_currentdb = internal global i32 0, align 4
@hf_afs_ubik_up = internal global i32 0, align 4
@hf_afs_ubik_beaconsincedown = internal global i32 0, align 4
@.str.966 = private unnamed_addr constant [15 x i8] c"Remote Version\00", align 1

; Function Attrs: null_pointer_is_valid sspstrong uwtable
define internal void @OUT_TIMESECS(ptr noundef %0, i32 noundef %1) #0 {
  %3 = alloca ptr, align 8
  %4 = alloca i32, align 4
  store ptr %0, ptr %3, align 8
  store i32 %1, ptr %4, align 4
  %5 = load ptr, ptr %3, align 8
  %6 = call ptr @ptvcursor_tree(ptr noundef %5)
  %7 = load i32, ptr %4, align 4
  %8 = load ptr, ptr %3, align 8
  %9 = call ptr @ptvcursor_tvbuff(ptr noundef %8)
  %10 = load ptr, ptr %3, align 8
  %11 = call i32 @ptvcursor_current_offset(ptr noundef %10)
  %12 = call ptr @proto_tree_add_item(ptr noundef %6, i32 noundef %7, ptr noundef %9, i32 noundef %11, i32 noundef 4, i32 noundef 18)
  %13 = load ptr, ptr %3, align 8
  call void @ptvcursor_advance(ptr noundef %13, i32 noundef 4)
  ret void
}

; Function Attrs: null_pointer_is_valid sspstrong uwtable
define internal void @OUT_UBIK_SDebugOld(ptr noundef %0) #0 {
  %2 = alloca ptr, align 8
  store ptr %0, ptr %2, align 8
  %3 = load ptr, ptr %2, align 8
  %4 = load i32, ptr @hf_afs_ubik_addr, align 4
  %5 = call ptr @ptvcursor_add(ptr noundef %3, i32 noundef %4, i32 noundef 4, i32 noundef 0)
  %6 = load ptr, ptr %2, align 8
  %7 = load i32, ptr @hf_afs_ubik_lastvotetime, align 4
  call void @OUT_TIMESECS(ptr noundef %6, i32 noundef %7)
  %8 = load ptr, ptr %2, align 8
  %9 = load i32, ptr @hf_afs_ubik_lastbeaconsent, align 4
  call void @OUT_TIMESECS(ptr noundef %8, i32 noundef %9)
  %10 = load ptr, ptr %2, align 8
  %11 = load i32, ptr @hf_afs_ubik_lastvote, align 4
  %12 = call ptr @ptvcursor_add(ptr noundef %10, i32 noundef %11, i32 noundef 4, i32 noundef 0)
  %13 = load ptr, ptr %2, align 8
  call void @OUT_UBIKVERSION(ptr noundef %13, ptr noundef @.str.966)
  %14 = load ptr, ptr %2, align 8
  %15 = load i32, ptr @hf_afs_ubik_currentdb, align 4
  %16 = call ptr @ptvcursor_add(ptr noundef %14, i32 noundef %15, i32 noundef 4, i32 noundef 0)
  %17 = load ptr, ptr %2, align 8
  %18 = load i32, ptr @hf_afs_ubik_beaconsincedown, align 4
  %19 = call ptr @ptvcursor_add(ptr noundef %17, i32 noundef %18, i32 noundef 4, i32 noundef 0)
  %20 = load ptr, ptr %2, align 8
  %21 = load i32, ptr @hf_afs_ubik_up, align 4
  %22 = call ptr @ptvcursor_add(ptr noundef %20, i32 noundef %21, i32 noundef 4, i32 noundef 0)
  ret void
}