; Function Attrs: null_pointer_is_valid sspstrong uwtable
define internal fastcc void @OUT_UBIK_SDebugOld(ptr noundef %0) unnamed_addr #0 {
  %2 = load i32, ptr @hf_afs_ubik_addr, align 4
  %3 = tail call ptr @ptvcursor_add(ptr noundef %0, i32 noundef %2, i32 noundef 4, i32 noundef 0)
  %4 = load i32, ptr @hf_afs_ubik_lastvotetime, align 4
  %5 = tail call ptr @ptvcursor_tree(ptr noundef %0)
  %6 = tail call ptr @ptvcursor_tvbuff(ptr noundef %0)
  %7 = tail call i32 @ptvcursor_current_offset(ptr noundef %0)
  %8 = tail call ptr @proto_tree_add_item(ptr noundef %5, i32 noundef %4, ptr noundef %6, i32 noundef %7, i32 noundef 4, i32 noundef 18)
  tail call void @ptvcursor_advance(ptr noundef %0, i32 noundef 4)
  %9 = load i32, ptr @hf_afs_ubik_lastbeaconsent, align 4
  %10 = tail call ptr @ptvcursor_tree(ptr noundef %0)
  %11 = tail call ptr @ptvcursor_tvbuff(ptr noundef %0)
  %12 = tail call i32 @ptvcursor_current_offset(ptr noundef %0)
  %13 = tail call ptr @proto_tree_add_item(ptr noundef %10, i32 noundef %9, ptr noundef %11, i32 noundef %12, i32 noundef 4, i32 noundef 18)
  tail call void @ptvcursor_advance(ptr noundef %0, i32 noundef 4)
  %14 = load i32, ptr @hf_afs_ubik_lastvote, align 4
  %15 = tail call ptr @ptvcursor_add(ptr noundef %0, i32 noundef %14, i32 noundef 4, i32 noundef 0)
  tail call fastcc void @OUT_UBIKVERSION(ptr noundef %0, ptr noundef nonnull @.str.966)
  %16 = load i32, ptr @hf_afs_ubik_currentdb, align 4
  %17 = tail call ptr @ptvcursor_add(ptr noundef %0, i32 noundef %16, i32 noundef 4, i32 noundef 0)
  %18 = load i32, ptr @hf_afs_ubik_beaconsincedown, align 4
  %19 = tail call ptr @ptvcursor_add(ptr noundef %0, i32 noundef %18, i32 noundef 4, i32 noundef 0)
  %20 = load i32, ptr @hf_afs_ubik_up, align 4
  %21 = tail call ptr @ptvcursor_add(ptr noundef %0, i32 noundef %20, i32 noundef 4, i32 noundef 0)
  ret void
}